; Function Attrs: mustprogress uwtable
define noundef ptr @_ZN18OpenImageIO_v2_6_09ImageSpec14find_attributeENS_17basic_string_viewIcSt11char_traitsIcEEENS_8TypeDescEb(ptr noundef nonnull align 8 dereferenceable(160) %this, ptr nocapture noundef readonly %name, ptr nocapture noundef readonly %searchtype, i1 noundef zeroext %casesensitive) local_unnamed_addr #5 align 2 {
entry:
  %agg.tmp = alloca %"class.OpenImageIO_v2_6_0::basic_string_view", align 8
  %agg.tmp2 = alloca %"struct.OpenImageIO_v2_6_0::TypeDesc", align 4
  %extra_attribs = getelementptr inbounds i8, ptr %this, i64 136
  %0 = load ptr, ptr %name, align 8
  store ptr %0, ptr %agg.tmp, align 8
  %m_len.i = getelementptr inbounds i8, ptr %agg.tmp, i64 8
  %m_len.i.i = getelementptr inbounds i8, ptr %name, i64 8
  %1 = load i64, ptr %m_len.i.i, align 8
  store i64 %1, ptr %m_len.i, align 8
  %2 = load i8, ptr %searchtype, align 4
  store i8 %2, ptr %agg.tmp2, align 4
  %aggregate.i = getelementptr inbounds i8, ptr %agg.tmp2, i64 1
  %aggregate3.i = getelementptr inbounds i8, ptr %searchtype, i64 1
  %3 = load i8, ptr %aggregate3.i, align 1
  store i8 %3, ptr %aggregate.i, align 1
  %vecsemantics.i = getelementptr inbounds i8, ptr %agg.tmp2, i64 2
  %vecsemantics4.i = getelementptr inbounds i8, ptr %searchtype, i64 2
  %4 = load i8, ptr %vecsemantics4.i, align 2
  store i8 %4, ptr %vecsemantics.i, align 2
  %reserved.i = getelementptr inbounds i8, ptr %agg.tmp2, i64 3
  store i8 0, ptr %reserved.i, align 1
  %arraylen.i = getelementptr inbounds i8, ptr %agg.tmp2, i64 4
  %arraylen5.i = getelementptr inbounds i8, ptr %searchtype, i64 4
  %5 = load i32, ptr %arraylen5.i, align 4
  store i32 %5, ptr %arraylen.i, align 4
  %call = call ptr @_ZN18OpenImageIO_v2_6_014ParamValueList4findENS_17basic_string_viewIcSt11char_traitsIcEEENS_8TypeDescEb(ptr noundef nonnull align 8 dereferenceable(24) %extra_attribs, ptr noundef nonnull %agg.tmp, ptr noundef nonnull %agg.tmp2, i1 noundef zeroext %casesensitive)
  %_M_finish.i = getelementptr inbounds i8, ptr %this, i64 144
  %6 = load ptr, ptr %_M_finish.i, align 8
  %cmp.i.not = icmp eq ptr %call, %6
  %spec.select = select i1 %cmp.i.not, ptr null, ptr %call
  ret ptr %spec.select
}